target datalayout = "e-m:e-p270:32:32-p271:32:32-p272:64:64-i64:64-i128:128-f80:128-n8:16:32:64-S128"
target triple = "x86_64-pc-linux-gnu"

%class.anon.0 = type { ptr, ptr }
%"class.pbrt::PiecewiseLinearSpectrum" = type { %"class.pstd::vector", %"class.pstd::vector" }
%"class.pstd::vector" = type { %"class.pstd::pmr::polymorphic_allocator", ptr, i64, i64 }
%"class.pstd::pmr::polymorphic_allocator" = type { ptr }

; Function Attrs: inlinehint mustprogress nounwind uwtable
define linkonce_odr dso_local noundef i64 @_ZN4pbrt5ClampIlimEET_S1_T0_T1_(i64 noundef %0, i32 noundef %1, i64 noundef %2) #5 comdat {
  %4 = alloca i64, align 8
  %5 = alloca i64, align 8
  %6 = alloca i32, align 4
  %7 = alloca i64, align 8
  store i64 %0, ptr %5, align 8, !tbaa !58
  store i32 %1, ptr %6, align 4, !tbaa !49
  store i64 %2, ptr %7, align 8, !tbaa !58
  %8 = load i64, ptr %5, align 8, !tbaa !58
  %9 = load i32, ptr %6, align 4, !tbaa !49
  %10 = sext i32 %9 to i64
  %11 = icmp slt i64 %8, %10
  br i1 %11, label %12, label %15

12:                                               ; preds = %3
  %13 = load i32, ptr %6, align 4, !tbaa !49
  %14 = sext i32 %13 to i64
  store i64 %14, ptr %4, align 8
  br label %23

15:                                               ; preds = %3
  %16 = load i64, ptr %5, align 8, !tbaa !58
  %17 = load i64, ptr %7, align 8, !tbaa !58
  %18 = icmp ugt i64 %16, %17
  br i1 %18, label %19, label %21

19:                                               ; preds = %15
  %20 = load i64, ptr %7, align 8, !tbaa !58
  store i64 %20, ptr %4, align 8
  br label %23

21:                                               ; preds = %15
  %22 = load i64, ptr %5, align 8, !tbaa !58
  store i64 %22, ptr %4, align 8
  br label %23

23:                                               ; preds = %21, %19, %12
  %24 = load i64, ptr %4, align 8
  ret i64 %24
}

; Function Attrs: inlinehint mustprogress nounwind uwtable
define internal noundef zeroext i1 @"_ZZNK4pbrt23PiecewiseLinearSpectrumclEfENK3$_0clEi"(ptr noundef nonnull align 8 dereferenceable(16) %0, i32 noundef %1) #5 align 2 {
  %3 = alloca ptr, align 8
  %4 = alloca i32, align 4
  store ptr %0, ptr %3, align 8, !tbaa !42
  store i32 %1, ptr %4, align 4, !tbaa !49
  %5 = load ptr, ptr %3, align 8
  %6 = getelementptr inbounds nuw %class.anon.0, ptr %5, i32 0, i32 0
  %7 = load ptr, ptr %6, align 8, !tbaa !45
  %8 = getelementptr inbounds nuw %"class.pbrt::PiecewiseLinearSpectrum", ptr %7, i32 0, i32 0
  %9 = load i32, ptr %4, align 4, !tbaa !49
  %10 = sext i32 %9 to i64
  %11 = call noundef nonnull align 4 dereferenceable(4) ptr @_ZNK4pstd6vectorIfNS_3pmr21polymorphic_allocatorIfEEEixEm(ptr noundef nonnull align 8 dereferenceable(32) %8, i64 noundef %10)
  %12 = load float, ptr %11, align 4, !tbaa !9
  %13 = getelementptr inbounds nuw %class.anon.0, ptr %5, i32 0, i32 1
  %14 = load ptr, ptr %13, align 8, !tbaa !291
  %15 = load float, ptr %14, align 4, !tbaa !9
  %16 = fcmp ole float %12, %15
  ret i1 %16
}

; Function Attrs: inlinehint mustprogress nounwind uwtable
define linkonce_odr dso_local noundef float @_ZN4pbrt4LerpEfff(float noundef %0, float noundef %1, float noundef %2) #5 comdat {
  %4 = alloca float, align 4
  %5 = alloca float, align 4
  %6 = alloca float, align 4
  store float %0, ptr %4, align 4, !tbaa !9
  store float %1, ptr %5, align 4, !tbaa !9
  store float %2, ptr %6, align 4, !tbaa !9
  %7 = load float, ptr %4, align 4, !tbaa !9
  %8 = fsub float 1.000000e+00, %7
  %9 = load float, ptr %5, align 4, !tbaa !9
  %10 = fmul float %8, %9
  %11 = load float, ptr %4, align 4, !tbaa !9
  %12 = load float, ptr %6, align 4, !tbaa !9
  %13 = fmul float %11, %12
  %14 = fadd float %10, %13
  ret float %14
}

; Function Attrs: mustprogress nounwind uwtable
define linkonce_odr dso_local noundef nonnull align 4 dereferenceable(4) ptr @_ZNK4pstd6vectorIfNS_3pmr21polymorphic_allocatorIfEEEixEm(ptr noundef nonnull align 8 dereferenceable(32) %0, i64 noundef %1) #3 comdat align 2 {
  %3 = alloca ptr, align 8
  %4 = alloca i64, align 8
  store ptr %0, ptr %3, align 8, !tbaa !51
  store i64 %1, ptr %4, align 8, !tbaa !58
  %5 = load ptr, ptr %3, align 8
  br label %6

6:                                                ; preds = %2
  br label %7

7:                                                ; preds = %6
  %8 = getelementptr inbounds nuw %"class.pstd::vector", ptr %5, i32 0, i32 1
  %9 = load ptr, ptr %8, align 8, !tbaa !53
  %10 = load i64, ptr %4, align 8, !tbaa !58
  %11 = getelementptr inbounds nuw float, ptr %9, i64 %10
  ret ptr %11
}

; Function Attrs: inlinehint mustprogress uwtable
define internal noundef i64 @"_ZN4pbrt12FindIntervalIZNKS_23PiecewiseLinearSpectrumclEfE3$_0EEmmRKT_"(i64 noundef %0, ptr noundef nonnull align 8 dereferenceable(16) %1) #4 {
  %3 = alloca i64, align 8
  %4 = alloca ptr, align 8
  %5 = alloca i64, align 8
  %6 = alloca i64, align 8
  %7 = alloca i64, align 8
  %8 = alloca i64, align 8
  %9 = alloca i8, align 1
  store i64 %0, ptr %3, align 8, !tbaa !58
  store ptr %1, ptr %4, align 8, !tbaa !42
  call void @llvm.lifetime.start.p0(i64 8, ptr %5) #12
  %10 = load i64, ptr %3, align 8, !tbaa !58
  %11 = sub nsw i64 %10, 2
  store i64 %11, ptr %5, align 8, !tbaa !58
  call void @llvm.lifetime.start.p0(i64 8, ptr %6) #12
  store i64 1, ptr %6, align 8, !tbaa !58
  br label %12

12:                                               ; preds = %44, %2
  %13 = load i64, ptr %5, align 8, !tbaa !58
  %14 = icmp sgt i64 %13, 0
  br i1 %14, label %15, label %46

15:                                               ; preds = %12
  call void @llvm.lifetime.start.p0(i64 8, ptr %7) #12
  %16 = load i64, ptr %5, align 8, !tbaa !58
  %17 = lshr i64 %16, 1
  store i64 %17, ptr %7, align 8, !tbaa !58
  call void @llvm.lifetime.start.p0(i64 8, ptr %8) #12
  %18 = load i64, ptr %6, align 8, !tbaa !58
  %19 = load i64, ptr %7, align 8, !tbaa !58
  %20 = add i64 %18, %19
  store i64 %20, ptr %8, align 8, !tbaa !58
  call void @llvm.lifetime.start.p0(i64 1, ptr %9) #12
  %21 = load ptr, ptr %4, align 8, !tbaa !42
  %22 = load i64, ptr %8, align 8, !tbaa !58
  %23 = trunc i64 %22 to i32
  %24 = call noundef zeroext i1 @"_ZZNK4pbrt23PiecewiseLinearSpectrumclEfENK3$_0clEi"(ptr noundef nonnull align 8 dereferenceable(16) %21, i32 noundef %23)
  %25 = zext i1 %24 to i8
  store i8 %25, ptr %9, align 1, !tbaa !59
  %26 = load i8, ptr %9, align 1, !tbaa !59, !range !61, !noundef !62
  %27 = trunc i8 %26 to i1
  br i1 %27, label %28, label %31

28:                                               ; preds = %15
  %29 = load i64, ptr %8, align 8, !tbaa !58
  %30 = add i64 %29, 1
  br label %33

31:                                               ; preds = %15
  %32 = load i64, ptr %6, align 8, !tbaa !58
  br label %33

33:                                               ; preds = %31, %28
  %34 = phi i64 [ %30, %28 ], [ %32, %31 ]
  store i64 %34, ptr %6, align 8, !tbaa !58
  %35 = load i8, ptr %9, align 1, !tbaa !59, !range !61, !noundef !62
  %36 = trunc i8 %35 to i1
  br i1 %36, label %37, label %42

37:                                               ; preds = %33
  %38 = load i64, ptr %5, align 8, !tbaa !58
  %39 = load i64, ptr %7, align 8, !tbaa !58
  %40 = add i64 %39, 1
  %41 = sub i64 %38, %40
  br label %44

42:                                               ; preds = %33
  %43 = load i64, ptr %7, align 8, !tbaa !58
  br label %44

44:                                               ; preds = %42, %37
  %45 = phi i64 [ %41, %37 ], [ %43, %42 ]
  store i64 %45, ptr %5, align 8, !tbaa !58
  call void @llvm.lifetime.end.p0(i64 1, ptr %9) #12
  call void @llvm.lifetime.end.p0(i64 8, ptr %8) #12
  call void @llvm.lifetime.end.p0(i64 8, ptr %7) #12
  br label %12, !llvm.loop !63

46:                                               ; preds = %12
  %47 = load i64, ptr %6, align 8, !tbaa !58
  %48 = sub nsw i64 %47, 1
  %49 = load i64, ptr %3, align 8, !tbaa !58
  %50 = sub i64 %49, 2
  %51 = call noundef i64 @_ZN4pbrt5ClampIlimEET_S1_T0_T1_(i64 noundef %48, i32 noundef 0, i64 noundef %50)
  call void @llvm.lifetime.end.p0(i64 8, ptr %6) #12
  call void @llvm.lifetime.end.p0(i64 8, ptr %5) #12
  ret i64 %51
}

; Function Attrs: mustprogress nounwind uwtable
define linkonce_odr dso_local noundef i64 @_ZNK4pstd6vectorIfNS_3pmr21polymorphic_allocatorIfEEE4sizeEv(ptr noundef nonnull align 8 dereferenceable(32) %0) #3 comdat align 2 {
  %2 = alloca ptr, align 8
  store ptr %0, ptr %2, align 8, !tbaa !51
  %3 = load ptr, ptr %2, align 8
  %4 = getelementptr inbounds nuw %"class.pstd::vector", ptr %3, i32 0, i32 3
  %5 = load i64, ptr %4, align 8, !tbaa !57
  ret i64 %5
}

; Function Attrs: mustprogress nounwind uwtable
define linkonce_odr dso_local noundef nonnull align 4 dereferenceable(4) ptr @_ZNK4pstd6vectorIfNS_3pmr21polymorphic_allocatorIfEEE4backEv(ptr noundef nonnull align 8 dereferenceable(32) %0) #3 comdat align 2 {
  %2 = alloca ptr, align 8
  store ptr %0, ptr %2, align 8, !tbaa !51
  %3 = load ptr, ptr %2, align 8
  %4 = getelementptr inbounds nuw %"class.pstd::vector", ptr %3, i32 0, i32 1
  %5 = load ptr, ptr %4, align 8, !tbaa !53
  %6 = getelementptr inbounds nuw %"class.pstd::vector", ptr %3, i32 0, i32 3
  %7 = load i64, ptr %6, align 8, !tbaa !57
  %8 = sub i64 %7, 1
  %9 = getelementptr inbounds nuw float, ptr %5, i64 %8
  ret ptr %9
}

; Function Attrs: mustprogress nounwind uwtable
define linkonce_odr dso_local noundef nonnull align 4 dereferenceable(4) ptr @_ZNK4pstd6vectorIfNS_3pmr21polymorphic_allocatorIfEEE5frontEv(ptr noundef nonnull align 8 dereferenceable(32) %0) #3 comdat align 2 {
  %2 = alloca ptr, align 8
  store ptr %0, ptr %2, align 8, !tbaa !51
  %3 = load ptr, ptr %2, align 8
  %4 = getelementptr inbounds nuw %"class.pstd::vector", ptr %3, i32 0, i32 1
  %5 = load ptr, ptr %4, align 8, !tbaa !53
  %6 = getelementptr inbounds float, ptr %5, i64 0
  ret ptr %6
}

; Function Attrs: mustprogress nounwind uwtable
define linkonce_odr dso_local noundef zeroext i1 @_ZNK4pstd6vectorIfNS_3pmr21polymorphic_allocatorIfEEE5emptyEv(ptr noundef nonnull align 8 dereferenceable(32) %0) #3 comdat align 2 {
  %2 = alloca ptr, align 8
  store ptr %0, ptr %2, align 8, !tbaa !51
  %3 = load ptr, ptr %2, align 8
  %4 = call noundef i64 @_ZNK4pstd6vectorIfNS_3pmr21polymorphic_allocatorIfEEE4sizeEv(ptr noundef nonnull align 8 dereferenceable(32) %3)
  %5 = icmp eq i64 %4, 0
  ret i1 %5
}

; Function Attrs: mustprogress uwtable
define dso_local noundef float @_ZNK4pbrt23PiecewiseLinearSpectrumclEf(ptr noundef nonnull align 8 dereferenceable(64) %0, float noundef %1) #1 align 2 {
  %3 = alloca float, align 4
  %4 = alloca ptr, align 8
  %5 = alloca float, align 4
  %6 = alloca i32, align 4
  %7 = alloca %class.anon.0, align 8
  %8 = alloca float, align 4
  store ptr %0, ptr %4, align 8, !tbaa !43
  store float %1, ptr %5, align 4, !tbaa !9
  %9 = load ptr, ptr %4, align 8
  %10 = getelementptr inbounds nuw %"class.pbrt::PiecewiseLinearSpectrum", ptr %9, i32 0, i32 0
  %11 = call noundef zeroext i1 @_ZNK4pstd6vectorIfNS_3pmr21polymorphic_allocatorIfEEE5emptyEv(ptr noundef nonnull align 8 dereferenceable(32) %10)
  br i1 %11, label %24, label %12

12:                                               ; preds = %2
  %13 = load float, ptr %5, align 4, !tbaa !9
  %14 = getelementptr inbounds nuw %"class.pbrt::PiecewiseLinearSpectrum", ptr %9, i32 0, i32 0
  %15 = call noundef nonnull align 4 dereferenceable(4) ptr @_ZNK4pstd6vectorIfNS_3pmr21polymorphic_allocatorIfEEE5frontEv(ptr noundef nonnull align 8 dereferenceable(32) %14)
  %16 = load float, ptr %15, align 4, !tbaa !9
  %17 = fcmp olt float %13, %16
  br i1 %17, label %24, label %18

18:                                               ; preds = %12
  %19 = load float, ptr %5, align 4, !tbaa !9
  %20 = getelementptr inbounds nuw %"class.pbrt::PiecewiseLinearSpectrum", ptr %9, i32 0, i32 0
  %21 = call noundef nonnull align 4 dereferenceable(4) ptr @_ZNK4pstd6vectorIfNS_3pmr21polymorphic_allocatorIfEEE4backEv(ptr noundef nonnull align 8 dereferenceable(32) %20)
  %22 = load float, ptr %21, align 4, !tbaa !9
  %23 = fcmp ogt float %19, %22
  br i1 %23, label %24, label %25

24:                                               ; preds = %18, %12, %2
  store float 0.000000e+00, ptr %3, align 4
  br label %68

25:                                               ; preds = %18
  call void @llvm.lifetime.start.p0(i64 4, ptr %6) #12
  %26 = getelementptr inbounds nuw %"class.pbrt::PiecewiseLinearSpectrum", ptr %9, i32 0, i32 0
  %27 = call noundef i64 @_ZNK4pstd6vectorIfNS_3pmr21polymorphic_allocatorIfEEE4sizeEv(ptr noundef nonnull align 8 dereferenceable(32) %26)
  call void @llvm.lifetime.start.p0(i64 16, ptr %7) #12
  %28 = getelementptr inbounds nuw %class.anon.0, ptr %7, i32 0, i32 0
  store ptr %9, ptr %28, align 8, !tbaa !45
  %29 = getelementptr inbounds nuw %class.anon.0, ptr %7, i32 0, i32 1
  store ptr %5, ptr %29, align 8, !tbaa !48
  %30 = call noundef i64 @"_ZN4pbrt12FindIntervalIZNKS_23PiecewiseLinearSpectrumclEfE3$_0EEmmRKT_"(i64 noundef %27, ptr noundef nonnull align 8 dereferenceable(16) %7)
  %31 = trunc i64 %30 to i32
  call void @llvm.lifetime.end.p0(i64 16, ptr %7) #12
  store i32 %31, ptr %6, align 4, !tbaa !49
  br label %32

32:                                               ; preds = %25
  br label %33

33:                                               ; preds = %32
  br label %34

34:                                               ; preds = %33
  call void @llvm.lifetime.start.p0(i64 4, ptr %8) #12
  %35 = load float, ptr %5, align 4, !tbaa !9
  %36 = getelementptr inbounds nuw %"class.pbrt::PiecewiseLinearSpectrum", ptr %9, i32 0, i32 0
  %37 = load i32, ptr %6, align 4, !tbaa !49
  %38 = sext i32 %37 to i64
  %39 = call noundef nonnull align 4 dereferenceable(4) ptr @_ZNK4pstd6vectorIfNS_3pmr21polymorphic_allocatorIfEEEixEm(ptr noundef nonnull align 8 dereferenceable(32) %36, i64 noundef %38)
  %40 = load float, ptr %39, align 4, !tbaa !9
  %41 = fsub float %35, %40
  %42 = getelementptr inbounds nuw %"class.pbrt::PiecewiseLinearSpectrum", ptr %9, i32 0, i32 0
  %43 = load i32, ptr %6, align 4, !tbaa !49
  %44 = add nsw i32 %43, 1
  %45 = sext i32 %44 to i64
  %46 = call noundef nonnull align 4 dereferenceable(4) ptr @_ZNK4pstd6vectorIfNS_3pmr21polymorphic_allocatorIfEEEixEm(ptr noundef nonnull align 8 dereferenceable(32) %42, i64 noundef %45)
  %47 = load float, ptr %46, align 4, !tbaa !9
  %48 = getelementptr inbounds nuw %"class.pbrt::PiecewiseLinearSpectrum", ptr %9, i32 0, i32 0
  %49 = load i32, ptr %6, align 4, !tbaa !49
  %50 = sext i32 %49 to i64
  %51 = call noundef nonnull align 4 dereferenceable(4) ptr @_ZNK4pstd6vectorIfNS_3pmr21polymorphic_allocatorIfEEEixEm(ptr noundef nonnull align 8 dereferenceable(32) %48, i64 noundef %50)
  %52 = load float, ptr %51, align 4, !tbaa !9
  %53 = fsub float %47, %52
  %54 = fdiv float %41, %53
  store float %54, ptr %8, align 4, !tbaa !9
  %55 = load float, ptr %8, align 4, !tbaa !9
  %56 = getelementptr inbounds nuw %"class.pbrt::PiecewiseLinearSpectrum", ptr %9, i32 0, i32 1
  %57 = load i32, ptr %6, align 4, !tbaa !49
  %58 = sext i32 %57 to i64
  %59 = call noundef nonnull align 4 dereferenceable(4) ptr @_ZNK4pstd6vectorIfNS_3pmr21polymorphic_allocatorIfEEEixEm(ptr noundef nonnull align 8 dereferenceable(32) %56, i64 noundef %58)
  %60 = load float, ptr %59, align 4, !tbaa !9
  %61 = getelementptr inbounds nuw %"class.pbrt::PiecewiseLinearSpectrum", ptr %9, i32 0, i32 1
  %62 = load i32, ptr %6, align 4, !tbaa !49
  %63 = add nsw i32 %62, 1
  %64 = sext i32 %63 to i64
  %65 = call noundef nonnull align 4 dereferenceable(4) ptr @_ZNK4pstd6vectorIfNS_3pmr21polymorphic_allocatorIfEEEixEm(ptr noundef nonnull align 8 dereferenceable(32) %61, i64 noundef %64)
  %66 = load float, ptr %65, align 4, !tbaa !9
  %67 = call noundef float @_ZN4pbrt4LerpEfff(float noundef %55, float noundef %60, float noundef %66)
  store float %67, ptr %3, align 4
  call void @llvm.lifetime.end.p0(i64 4, ptr %8) #12
  call void @llvm.lifetime.end.p0(i64 4, ptr %6) #12
  br label %68

68:                                               ; preds = %34, %24
  %69 = load float, ptr %3, align 4
  ret float %69
}