; Function Attrs: mustprogress nofree norecurse nosync nounwind willreturn memory(read, inaccessiblemem: none) uwtable
define dso_local noundef float @_ZNK4pbrt23PiecewiseLinearSpectrumclEf(ptr noundef nonnull readonly align 8 captures(none) dereferenceable(64) %0, float noundef %1) local_unnamed_addr #4 align 2 {
  %3 = getelementptr inbounds nuw i8, ptr %0, i64 24
  %4 = load i64, ptr %3, align 8, !tbaa !60
  %5 = icmp eq i64 %4, 0
  br i1 %5, label %52, label %6

6:                                                ; preds = %2
  %7 = getelementptr inbounds nuw i8, ptr %0, i64 8
  %8 = load ptr, ptr %7, align 8, !tbaa !64
  %9 = load float, ptr %8, align 4, !tbaa !16
  %10 = fcmp olt float %1, %9
  br i1 %10, label %52, label %11

11:                                               ; preds = %6
  %12 = getelementptr float, ptr %8, i64 %4
  %13 = getelementptr i8, ptr %12, i64 -4
  %14 = load float, ptr %13, align 4, !tbaa !16
  %15 = fcmp ogt float %1, %14
  br i1 %15, label %52, label %16

16:                                               ; preds = %11
  %17 = add i64 %4, -2
  %18 = icmp sgt i64 %17, 0
  br i1 %18, label %.lr.ph.i, label %"_ZN4pbrt12FindIntervalIZNKS_23PiecewiseLinearSpectrumclEfE3$_0EEmmRKT_.exit"

.lr.ph.i:                                         ; preds = %16, %.lr.ph.i
  %.02.i = phi i64 [ %28, %.lr.ph.i ], [ %17, %16 ]
  %.0151.i = phi i64 [ %.fr.i, %.lr.ph.i ], [ 1, %16 ]
  %19 = lshr i64 %.02.i, 1
  %20 = add i64 %19, %.0151.i
  %sext.i = shl i64 %20, 32
  %21 = ashr exact i64 %sext.i, 30
  %22 = getelementptr inbounds nuw i8, ptr %8, i64 %21
  %23 = load float, ptr %22, align 4, !tbaa !16
  %24 = fcmp ole float %23, %1
  %25 = add i64 %20, 1
  %26 = select i1 %24, i64 %25, i64 %.0151.i
  %.fr.i = freeze i64 %26
  %.neg.i = xor i64 %19, -1
  %27 = add nsw i64 %.02.i, %.neg.i
  %28 = select i1 %24, i64 %27, i64 %19
  %29 = icmp sgt i64 %28, 0
  br i1 %29, label %.lr.ph.i, label %._crit_edge.i, !llvm.loop !65

._crit_edge.i:                                    ; preds = %.lr.ph.i
  %30 = add nsw i64 %.fr.i, -1
  %..i.i = tail call i64 @llvm.umin.i64(i64 %30, i64 %17)
  %.inv.i = icmp sgt i64 %.fr.i, 0
  %31 = shl i64 %..i.i, 32
  %32 = select i1 %.inv.i, i64 %31, i64 0
  br label %"_ZN4pbrt12FindIntervalIZNKS_23PiecewiseLinearSpectrumclEfE3$_0EEmmRKT_.exit"

"_ZN4pbrt12FindIntervalIZNKS_23PiecewiseLinearSpectrumclEfE3$_0EEmmRKT_.exit": ; preds = %16, %._crit_edge.i
  %sext = phi i64 [ 0, %16 ], [ %32, %._crit_edge.i ]
  %33 = ashr exact i64 %sext, 32
  %34 = getelementptr inbounds nuw float, ptr %8, i64 %33
  %35 = load float, ptr %34, align 4, !tbaa !16
  %36 = fsub float %1, %35
  %sext7 = add i64 %sext, 4294967296
  %37 = ashr exact i64 %sext7, 32
  %38 = getelementptr inbounds nuw float, ptr %8, i64 %37
  %39 = load float, ptr %38, align 4, !tbaa !16
  %40 = fsub float %39, %35
  %41 = fdiv float %36, %40
  %42 = getelementptr inbounds nuw i8, ptr %0, i64 40
  %43 = load ptr, ptr %42, align 8, !tbaa !64
  %44 = getelementptr inbounds nuw float, ptr %43, i64 %33
  %45 = load float, ptr %44, align 4, !tbaa !16
  %46 = getelementptr inbounds nuw float, ptr %43, i64 %37
  %47 = load float, ptr %46, align 4, !tbaa !16
  %48 = fsub float 1.000000e+00, %41
  %49 = fmul float %45, %48
  %50 = fmul float %41, %47
  %51 = fadd float %49, %50
  br label %52

52:                                               ; preds = %2, %6, %11, %"_ZN4pbrt12FindIntervalIZNKS_23PiecewiseLinearSpectrumclEfE3$_0EEmmRKT_.exit"
  %.0 = phi float [ %51, %"_ZN4pbrt12FindIntervalIZNKS_23PiecewiseLinearSpectrumclEfE3$_0EEmmRKT_.exit" ], [ 0.000000e+00, %11 ], [ 0.000000e+00, %6 ], [ 0.000000e+00, %2 ]
  ret float %.0
}